target datalayout = "e-m:e-p270:32:32-p271:32:32-p272:64:64-i64:64-i128:128-f80:128-n8:16:32:64-S128"
target triple = "x86_64-pc-linux-gnu"

@hf_Tango_AttributeAlarm_min_alarm = internal global i32 0, align 4
@hf_Tango_AttributeAlarm_max_alarm = internal global i32 0, align 4
@hf_Tango_AttributeAlarm_min_warning = internal global i32 0, align 4
@hf_Tango_AttributeAlarm_max_warning = internal global i32 0, align 4
@hf_Tango_AttributeAlarm_delta_t = internal global i32 0, align 4
@hf_Tango_AttributeAlarm_delta_val = internal global i32 0, align 4
@hf_Tango_AttributeAlarm_extensions_loop = internal global i32 0, align 4
@hf_Tango_AttributeAlarm_extensions = internal global i32 0, align 4
@ett_giop_sequence = internal global i32 0, align 4
@boundary = internal global i32 12, align 4
@.str.826 = private unnamed_addr constant [41 x i8] c"sequence Tango_AttributeAlarm_extensions\00", align 1

; Function Attrs: null_pointer_is_valid sspstrong uwtable
define internal void @decode_Tango_AttributeAlarm_st(ptr noundef %0, ptr noundef %1, ptr noundef %2, ptr noundef %3, ptr noundef %4, ptr noundef %5, ptr noundef %6, i1 noundef zeroext %7) #0 {
  %9 = alloca ptr, align 8
  %10 = alloca ptr, align 8
  %11 = alloca ptr, align 8
  %12 = alloca ptr, align 8
  %13 = alloca ptr, align 8
  %14 = alloca ptr, align 8
  %15 = alloca ptr, align 8
  %16 = alloca i8, align 1
  %17 = alloca i32, align 4
  %18 = alloca i32, align 4
  %19 = alloca ptr, align 8
  store ptr %0, ptr %9, align 8
  store ptr %1, ptr %10, align 8
  store ptr %2, ptr %11, align 8
  store ptr %3, ptr %12, align 8
  store ptr %4, ptr %13, align 8
  store ptr %5, ptr %14, align 8
  store ptr %6, ptr %15, align 8
  %20 = zext i1 %7 to i8
  store i8 %20, ptr %16, align 1
  call void @llvm.lifetime.start.p0(i64 4, ptr %17) #6
  call void @llvm.lifetime.start.p0(i64 4, ptr %18) #6
  %21 = load ptr, ptr %11, align 8
  %22 = load ptr, ptr %9, align 8
  %23 = load ptr, ptr %13, align 8
  %24 = load i8, ptr %16, align 1, !range !6, !noundef !7
  %25 = trunc i8 %24 to i1
  %26 = load i32, ptr @boundary, align 4
  %27 = load i32, ptr @hf_Tango_AttributeAlarm_min_alarm, align 4
  call void @giop_add_CDR_string(ptr noundef %21, ptr noundef %22, ptr noundef %23, i1 noundef zeroext %25, i32 noundef %26, i32 noundef %27)
  %28 = load ptr, ptr %11, align 8
  %29 = load ptr, ptr %9, align 8
  %30 = load ptr, ptr %13, align 8
  %31 = load i8, ptr %16, align 1, !range !6, !noundef !7
  %32 = trunc i8 %31 to i1
  %33 = load i32, ptr @boundary, align 4
  %34 = load i32, ptr @hf_Tango_AttributeAlarm_max_alarm, align 4
  call void @giop_add_CDR_string(ptr noundef %28, ptr noundef %29, ptr noundef %30, i1 noundef zeroext %32, i32 noundef %33, i32 noundef %34)
  %35 = load ptr, ptr %11, align 8
  %36 = load ptr, ptr %9, align 8
  %37 = load ptr, ptr %13, align 8
  %38 = load i8, ptr %16, align 1, !range !6, !noundef !7
  %39 = trunc i8 %38 to i1
  %40 = load i32, ptr @boundary, align 4
  %41 = load i32, ptr @hf_Tango_AttributeAlarm_min_warning, align 4
  call void @giop_add_CDR_string(ptr noundef %35, ptr noundef %36, ptr noundef %37, i1 noundef zeroext %39, i32 noundef %40, i32 noundef %41)
  %42 = load ptr, ptr %11, align 8
  %43 = load ptr, ptr %9, align 8
  %44 = load ptr, ptr %13, align 8
  %45 = load i8, ptr %16, align 1, !range !6, !noundef !7
  %46 = trunc i8 %45 to i1
  %47 = load i32, ptr @boundary, align 4
  %48 = load i32, ptr @hf_Tango_AttributeAlarm_max_warning, align 4
  call void @giop_add_CDR_string(ptr noundef %42, ptr noundef %43, ptr noundef %44, i1 noundef zeroext %46, i32 noundef %47, i32 noundef %48)
  %49 = load ptr, ptr %11, align 8
  %50 = load ptr, ptr %9, align 8
  %51 = load ptr, ptr %13, align 8
  %52 = load i8, ptr %16, align 1, !range !6, !noundef !7
  %53 = trunc i8 %52 to i1
  %54 = load i32, ptr @boundary, align 4
  %55 = load i32, ptr @hf_Tango_AttributeAlarm_delta_t, align 4
  call void @giop_add_CDR_string(ptr noundef %49, ptr noundef %50, ptr noundef %51, i1 noundef zeroext %53, i32 noundef %54, i32 noundef %55)
  %56 = load ptr, ptr %11, align 8
  %57 = load ptr, ptr %9, align 8
  %58 = load ptr, ptr %13, align 8
  %59 = load i8, ptr %16, align 1, !range !6, !noundef !7
  %60 = trunc i8 %59 to i1
  %61 = load i32, ptr @boundary, align 4
  %62 = load i32, ptr @hf_Tango_AttributeAlarm_delta_val, align 4
  call void @giop_add_CDR_string(ptr noundef %56, ptr noundef %57, ptr noundef %58, i1 noundef zeroext %60, i32 noundef %61, i32 noundef %62)
  %63 = load ptr, ptr %9, align 8
  %64 = load ptr, ptr %13, align 8
  %65 = load i8, ptr %16, align 1, !range !6, !noundef !7
  %66 = trunc i8 %65 to i1
  %67 = load i32, ptr @boundary, align 4
  %68 = call i32 @get_CDR_ulong(ptr noundef %63, ptr noundef %64, i1 noundef zeroext %66, i32 noundef %67)
  store i32 %68, ptr %17, align 4
  %69 = load ptr, ptr %11, align 8
  %70 = load i32, ptr @hf_Tango_AttributeAlarm_extensions_loop, align 4
  %71 = load ptr, ptr %9, align 8
  %72 = load ptr, ptr %13, align 8
  %73 = load i32, ptr %72, align 4
  %74 = sub i32 %73, 4
  %75 = load i32, ptr %17, align 4
  %76 = call ptr @proto_tree_add_uint(ptr noundef %69, i32 noundef %70, ptr noundef %71, i32 noundef %74, i32 noundef 4, i32 noundef %75)
  call void @llvm.lifetime.start.p0(i64 8, ptr %19) #6
  %77 = load ptr, ptr %11, align 8
  store ptr %77, ptr %19, align 8
  %78 = load ptr, ptr %11, align 8
  %79 = load ptr, ptr %9, align 8
  %80 = load ptr, ptr %13, align 8
  %81 = load i32, ptr %80, align 4
  %82 = load i32, ptr @ett_giop_sequence, align 4
  %83 = call ptr @proto_tree_add_subtree(ptr noundef %78, ptr noundef %79, i32 noundef %81, i32 noundef -1, i32 noundef %82, ptr noundef null, ptr noundef @.str.826)
  store ptr %83, ptr %11, align 8
  store i32 0, ptr %18, align 4
  br label %84

84:                                               ; preds = %96, %8
  %85 = load i32, ptr %18, align 4
  %86 = load i32, ptr %17, align 4
  %87 = icmp ult i32 %85, %86
  br i1 %87, label %88, label %99

88:                                               ; preds = %84
  %89 = load ptr, ptr %11, align 8
  %90 = load ptr, ptr %9, align 8
  %91 = load ptr, ptr %13, align 8
  %92 = load i8, ptr %16, align 1, !range !6, !noundef !7
  %93 = trunc i8 %92 to i1
  %94 = load i32, ptr @boundary, align 4
  %95 = load i32, ptr @hf_Tango_AttributeAlarm_extensions, align 4
  call void @giop_add_CDR_string(ptr noundef %89, ptr noundef %90, ptr noundef %91, i1 noundef zeroext %93, i32 noundef %94, i32 noundef %95)
  br label %96

96:                                               ; preds = %88
  %97 = load i32, ptr %18, align 4
  %98 = add i32 %97, 1
  store i32 %98, ptr %18, align 4
  br label %84, !llvm.loop !81

99:                                               ; preds = %84
  %100 = load ptr, ptr %19, align 8
  store ptr %100, ptr %11, align 8
  call void @llvm.lifetime.end.p0(i64 8, ptr %19) #6
  call void @llvm.lifetime.end.p0(i64 4, ptr %18) #6
  call void @llvm.lifetime.end.p0(i64 4, ptr %17) #6
  ret void
}